target datalayout = "e-m:e-p270:32:32-p271:32:32-p272:64:64-i64:64-i128:128-f80:128-n8:16:32:64-S128"
target triple = "x86_64-pc-linux-gnu"

%struct.PgStat_LocalState = type { ptr, ptr, ptr, %struct.PgStat_Snapshot }
%struct.PgStat_Snapshot = type { i32, i64, [13 x i8], %struct.PgStat_ArchiverStats, %struct.PgStat_BgWriterStats, %struct.PgStat_CheckpointerStats, %struct.PgStat_IO, [8 x %struct.PgStat_SLRUStats], %struct.PgStat_WalStats, [129 x i8], [129 x ptr], ptr, ptr }
%struct.PgStat_ArchiverStats = type { i64, [41 x i8], i64, i64, [41 x i8], i64, i64 }
%struct.PgStat_BgWriterStats = type { i64, i64, i64, i64 }
%struct.PgStat_CheckpointerStats = type { i64, i64, i64, i64, i64, i64, i64, i64, i64, i64, i64 }
%struct.PgStat_IO = type { i64, [17 x %struct.PgStat_BktypeIO] }
%struct.PgStat_BktypeIO = type { [3 x [5 x [8 x i64]]], [3 x [5 x [8 x i64]]], [3 x [5 x [8 x i64]]] }
%struct.PgStat_SLRUStats = type { i64, i64, i64, i64, i64, i64, i64, i64 }
%struct.PgStat_WalStats = type { i64, i64, i64, i64, i64, i64, i64, i64, i64 }
%struct.PgStat_ShmemControl = type { ptr, i64, i8, %struct.pg_atomic_uint64, %struct.PgStatShared_Archiver, %struct.PgStatShared_BgWriter, %struct.PgStatShared_Checkpointer, %struct.PgStatShared_IO, %struct.PgStatShared_SLRU, %struct.PgStatShared_Wal, [129 x ptr] }
%struct.pg_atomic_uint64 = type { i64 }
%struct.PgStatShared_Archiver = type { %struct.LWLock, i32, %struct.PgStat_ArchiverStats, %struct.PgStat_ArchiverStats }
%struct.LWLock = type { i16, %struct.pg_atomic_uint32, %struct.proclist_head }
%struct.pg_atomic_uint32 = type { i32 }
%struct.proclist_head = type { i32, i32 }
%struct.PgStatShared_BgWriter = type { %struct.LWLock, i32, %struct.PgStat_BgWriterStats, %struct.PgStat_BgWriterStats }
%struct.PgStatShared_Checkpointer = type { %struct.LWLock, i32, %struct.PgStat_CheckpointerStats, %struct.PgStat_CheckpointerStats }
%struct.PgStatShared_IO = type { [17 x %struct.LWLock], %struct.PgStat_IO }
%struct.PgStatShared_SLRU = type { %struct.LWLock, [8 x %struct.PgStat_SLRUStats] }
%struct.PgStatShared_Wal = type { %struct.LWLock, %struct.PgStat_WalStats }

@pgStatLocal = external global %struct.PgStat_LocalState, align 8
@have_slrustats = internal global i8 0, align 1
@pending_SLRUStats = internal global [8 x %struct.PgStat_SLRUStats] zeroinitializer, align 16

; Function Attrs: nounwind uwtable
define dso_local zeroext i1 @pgstat_slru_flush_cb(i1 noundef zeroext %0) #0 {
  %2 = alloca i1, align 1
  %3 = alloca i8, align 1
  %4 = alloca ptr, align 8
  %5 = alloca i32, align 4
  %6 = alloca i32, align 4
  %7 = alloca ptr, align 8
  %8 = alloca ptr, align 8
  %9 = alloca ptr, align 8
  %10 = alloca i32, align 4
  %11 = alloca i64, align 8
  %12 = alloca ptr, align 8
  %13 = alloca ptr, align 8
  %14 = zext i1 %0 to i8
  store i8 %14, ptr %3, align 1
  call void @llvm.lifetime.start.p0(i64 8, ptr %4) #7
  %15 = load ptr, ptr @pgStatLocal, align 8
  %16 = getelementptr inbounds nuw %struct.PgStat_ShmemControl, ptr %15, i32 0, i32 8
  store ptr %16, ptr %4, align 8
  call void @llvm.lifetime.start.p0(i64 4, ptr %5) #7
  %17 = load i8, ptr @have_slrustats, align 1, !range !6, !noundef !7
  %18 = trunc i8 %17 to i1
  br i1 %18, label %20, label %19

19:                                               ; preds = %1
  store i1 false, ptr %2, align 1
  store i32 1, ptr %6, align 4
  br label %138

20:                                               ; preds = %1
  %21 = load i8, ptr %3, align 1, !range !6, !noundef !7
  %22 = trunc i8 %21 to i1
  br i1 %22, label %27, label %23

23:                                               ; preds = %20
  %24 = load ptr, ptr %4, align 8
  %25 = getelementptr inbounds nuw %struct.PgStatShared_SLRU, ptr %24, i32 0, i32 0
  %26 = call zeroext i1 @LWLockAcquire(ptr noundef %25, i32 noundef 0)
  br label %33

27:                                               ; preds = %20
  %28 = load ptr, ptr %4, align 8
  %29 = getelementptr inbounds nuw %struct.PgStatShared_SLRU, ptr %28, i32 0, i32 0
  %30 = call zeroext i1 @LWLockConditionalAcquire(ptr noundef %29, i32 noundef 0)
  br i1 %30, label %32, label %31

31:                                               ; preds = %27
  store i1 true, ptr %2, align 1
  store i32 1, ptr %6, align 4
  br label %138

32:                                               ; preds = %27
  br label %33

33:                                               ; preds = %32, %23
  store i32 0, ptr %5, align 4
  br label %34

34:                                               ; preds = %96, %33
  %35 = load i32, ptr %5, align 4
  %36 = sext i32 %35 to i64
  %37 = icmp ult i64 %36, 8
  br i1 %37, label %38, label %99

38:                                               ; preds = %34
  call void @llvm.lifetime.start.p0(i64 8, ptr %7) #7
  %39 = load ptr, ptr %4, align 8
  %40 = getelementptr inbounds nuw %struct.PgStatShared_SLRU, ptr %39, i32 0, i32 1
  %41 = load i32, ptr %5, align 4
  %42 = sext i32 %41 to i64
  %43 = getelementptr inbounds [8 x %struct.PgStat_SLRUStats], ptr %40, i64 0, i64 %42
  store ptr %43, ptr %7, align 8
  call void @llvm.lifetime.start.p0(i64 8, ptr %8) #7
  %44 = load i32, ptr %5, align 4
  %45 = sext i32 %44 to i64
  %46 = getelementptr inbounds [8 x %struct.PgStat_SLRUStats], ptr @pending_SLRUStats, i64 0, i64 %45
  store ptr %46, ptr %8, align 8
  %47 = load ptr, ptr %8, align 8
  %48 = getelementptr inbounds nuw %struct.PgStat_SLRUStats, ptr %47, i32 0, i32 0
  %49 = load i64, ptr %48, align 8
  %50 = load ptr, ptr %7, align 8
  %51 = getelementptr inbounds nuw %struct.PgStat_SLRUStats, ptr %50, i32 0, i32 0
  %52 = load i64, ptr %51, align 8
  %53 = add i64 %52, %49
  store i64 %53, ptr %51, align 8
  %54 = load ptr, ptr %8, align 8
  %55 = getelementptr inbounds nuw %struct.PgStat_SLRUStats, ptr %54, i32 0, i32 1
  %56 = load i64, ptr %55, align 8
  %57 = load ptr, ptr %7, align 8
  %58 = getelementptr inbounds nuw %struct.PgStat_SLRUStats, ptr %57, i32 0, i32 1
  %59 = load i64, ptr %58, align 8
  %60 = add i64 %59, %56
  store i64 %60, ptr %58, align 8
  %61 = load ptr, ptr %8, align 8
  %62 = getelementptr inbounds nuw %struct.PgStat_SLRUStats, ptr %61, i32 0, i32 2
  %63 = load i64, ptr %62, align 8
  %64 = load ptr, ptr %7, align 8
  %65 = getelementptr inbounds nuw %struct.PgStat_SLRUStats, ptr %64, i32 0, i32 2
  %66 = load i64, ptr %65, align 8
  %67 = add i64 %66, %63
  store i64 %67, ptr %65, align 8
  %68 = load ptr, ptr %8, align 8
  %69 = getelementptr inbounds nuw %struct.PgStat_SLRUStats, ptr %68, i32 0, i32 3
  %70 = load i64, ptr %69, align 8
  %71 = load ptr, ptr %7, align 8
  %72 = getelementptr inbounds nuw %struct.PgStat_SLRUStats, ptr %71, i32 0, i32 3
  %73 = load i64, ptr %72, align 8
  %74 = add i64 %73, %70
  store i64 %74, ptr %72, align 8
  %75 = load ptr, ptr %8, align 8
  %76 = getelementptr inbounds nuw %struct.PgStat_SLRUStats, ptr %75, i32 0, i32 4
  %77 = load i64, ptr %76, align 8
  %78 = load ptr, ptr %7, align 8
  %79 = getelementptr inbounds nuw %struct.PgStat_SLRUStats, ptr %78, i32 0, i32 4
  %80 = load i64, ptr %79, align 8
  %81 = add i64 %80, %77
  store i64 %81, ptr %79, align 8
  %82 = load ptr, ptr %8, align 8
  %83 = getelementptr inbounds nuw %struct.PgStat_SLRUStats, ptr %82, i32 0, i32 5
  %84 = load i64, ptr %83, align 8
  %85 = load ptr, ptr %7, align 8
  %86 = getelementptr inbounds nuw %struct.PgStat_SLRUStats, ptr %85, i32 0, i32 5
  %87 = load i64, ptr %86, align 8
  %88 = add i64 %87, %84
  store i64 %88, ptr %86, align 8
  %89 = load ptr, ptr %8, align 8
  %90 = getelementptr inbounds nuw %struct.PgStat_SLRUStats, ptr %89, i32 0, i32 6
  %91 = load i64, ptr %90, align 8
  %92 = load ptr, ptr %7, align 8
  %93 = getelementptr inbounds nuw %struct.PgStat_SLRUStats, ptr %92, i32 0, i32 6
  %94 = load i64, ptr %93, align 8
  %95 = add i64 %94, %91
  store i64 %95, ptr %93, align 8
  call void @llvm.lifetime.end.p0(i64 8, ptr %8) #7
  call void @llvm.lifetime.end.p0(i64 8, ptr %7) #7
  br label %96

96:                                               ; preds = %38
  %97 = load i32, ptr %5, align 4
  %98 = add i32 %97, 1
  store i32 %98, ptr %5, align 4
  br label %34, !llvm.loop !8

99:                                               ; preds = %34
  br label %100

100:                                              ; preds = %99
  call void @llvm.lifetime.start.p0(i64 8, ptr %9) #7
  store ptr @pending_SLRUStats, ptr %9, align 8
  call void @llvm.lifetime.start.p0(i64 4, ptr %10) #7
  store i32 0, ptr %10, align 4
  call void @llvm.lifetime.start.p0(i64 8, ptr %11) #7
  store i64 512, ptr %11, align 8
  %101 = load ptr, ptr %9, align 8
  %102 = ptrtoint ptr %101 to i64
  %103 = and i64 %102, 7
  %104 = icmp eq i64 %103, 0
  br i1 %104, label %105, label %128

105:                                              ; preds = %100
  %106 = load i64, ptr %11, align 8
  %107 = and i64 %106, 7
  %108 = icmp eq i64 %107, 0
  br i1 %108, label %109, label %128

109:                                              ; preds = %105
  %110 = load i32, ptr %10, align 4
  %111 = icmp eq i32 %110, 0
  br i1 %111, label %112, label %128

112:                                              ; preds = %109
  %113 = load i64, ptr %11, align 8
  %114 = icmp ule i64 %113, 1024
  br i1 %114, label %115, label %128

115:                                              ; preds = %112
  call void @llvm.lifetime.start.p0(i64 8, ptr %12) #7
  %116 = load ptr, ptr %9, align 8
  store ptr %116, ptr %12, align 8
  call void @llvm.lifetime.start.p0(i64 8, ptr %13) #7
  %117 = load ptr, ptr %12, align 8
  %118 = load i64, ptr %11, align 8
  %119 = getelementptr inbounds nuw i8, ptr %117, i64 %118
  store ptr %119, ptr %13, align 8
  br label %120

120:                                              ; preds = %124, %115
  %121 = load ptr, ptr %12, align 8
  %122 = load ptr, ptr %13, align 8
  %123 = icmp ult ptr %121, %122
  br i1 %123, label %124, label %127

124:                                              ; preds = %120
  %125 = load ptr, ptr %12, align 8
  %126 = getelementptr inbounds nuw i64, ptr %125, i32 1
  store ptr %126, ptr %12, align 8
  store i64 0, ptr %125, align 8
  br label %120, !llvm.loop !9

127:                                              ; preds = %120
  call void @llvm.lifetime.end.p0(i64 8, ptr %13) #7
  call void @llvm.lifetime.end.p0(i64 8, ptr %12) #7
  br label %133

128:                                              ; preds = %112, %109, %105, %100
  %129 = load ptr, ptr %9, align 8
  %130 = load i32, ptr %10, align 4
  %131 = trunc i32 %130 to i8
  %132 = load i64, ptr %11, align 8
  call void @llvm.memset.p0.i64(ptr align 1 %129, i8 %131, i64 %132, i1 false)
  br label %133

133:                                              ; preds = %128, %127
  call void @llvm.lifetime.end.p0(i64 8, ptr %11) #7
  call void @llvm.lifetime.end.p0(i64 4, ptr %10) #7
  call void @llvm.lifetime.end.p0(i64 8, ptr %9) #7
  br label %134

134:                                              ; preds = %133
  br label %135

135:                                              ; preds = %134
  %136 = load ptr, ptr %4, align 8
  %137 = getelementptr inbounds nuw %struct.PgStatShared_SLRU, ptr %136, i32 0, i32 0
  call void @LWLockRelease(ptr noundef %137)
  store i8 0, ptr @have_slrustats, align 1
  store i1 false, ptr %2, align 1
  store i32 1, ptr %6, align 4
  br label %138

138:                                              ; preds = %135, %31, %19
  call void @llvm.lifetime.end.p0(i64 4, ptr %5) #7
  call void @llvm.lifetime.end.p0(i64 8, ptr %4) #7
  %139 = load i1, ptr %2, align 1
  ret i1 %139
}