; Function Attrs: nounwind uwtable
define dso_local noundef zeroext i1 @pgstat_slru_flush_cb(i1 noundef zeroext %0) local_unnamed_addr #0 {
  %2 = load ptr, ptr @pgStatLocal, align 8
  %3 = getelementptr inbounds nuw i8, ptr %2, i64 49856
  %.b42 = load i1, ptr @have_slrustats, align 1
  br i1 %.b42, label %4, label %47

4:                                                ; preds = %1
  br i1 %0, label %7, label %5

5:                                                ; preds = %4
  %6 = tail call zeroext i1 @LWLockAcquire(ptr noundef nonnull %3, i32 noundef 0) #9
  br label %9

7:                                                ; preds = %4
  %8 = tail call zeroext i1 @LWLockConditionalAcquire(ptr noundef nonnull %3, i32 noundef 0) #9
  br i1 %8, label %9, label %47

9:                                                ; preds = %7, %5
  %10 = getelementptr inbounds nuw i8, ptr %2, i64 49872
  br label %11

11:                                               ; preds = %9, %11
  %indvars.iv = phi i64 [ 0, %9 ], [ %indvars.iv.next, %11 ]
  %12 = getelementptr inbounds nuw [8 x %struct.PgStat_SLRUStats], ptr %10, i64 0, i64 %indvars.iv
  %13 = getelementptr inbounds nuw [8 x %struct.PgStat_SLRUStats], ptr @pending_SLRUStats, i64 0, i64 %indvars.iv
  %14 = load i64, ptr %13, align 16
  %15 = load i64, ptr %12, align 8
  %16 = add i64 %15, %14
  store i64 %16, ptr %12, align 8
  %17 = getelementptr inbounds nuw i8, ptr %13, i64 8
  %18 = load i64, ptr %17, align 8
  %19 = getelementptr inbounds nuw i8, ptr %12, i64 8
  %20 = load i64, ptr %19, align 8
  %21 = add i64 %20, %18
  store i64 %21, ptr %19, align 8
  %22 = getelementptr inbounds nuw i8, ptr %13, i64 16
  %23 = load i64, ptr %22, align 16
  %24 = getelementptr inbounds nuw i8, ptr %12, i64 16
  %25 = load i64, ptr %24, align 8
  %26 = add i64 %25, %23
  store i64 %26, ptr %24, align 8
  %27 = getelementptr inbounds nuw i8, ptr %13, i64 24
  %28 = load i64, ptr %27, align 8
  %29 = getelementptr inbounds nuw i8, ptr %12, i64 24
  %30 = load i64, ptr %29, align 8
  %31 = add i64 %30, %28
  store i64 %31, ptr %29, align 8
  %32 = getelementptr inbounds nuw i8, ptr %13, i64 32
  %33 = load i64, ptr %32, align 16
  %34 = getelementptr inbounds nuw i8, ptr %12, i64 32
  %35 = load i64, ptr %34, align 8
  %36 = add i64 %35, %33
  store i64 %36, ptr %34, align 8
  %37 = getelementptr inbounds nuw i8, ptr %13, i64 40
  %38 = load i64, ptr %37, align 8
  %39 = getelementptr inbounds nuw i8, ptr %12, i64 40
  %40 = load i64, ptr %39, align 8
  %41 = add i64 %40, %38
  store i64 %41, ptr %39, align 8
  %42 = getelementptr inbounds nuw i8, ptr %13, i64 48
  %43 = load i64, ptr %42, align 16
  %44 = getelementptr inbounds nuw i8, ptr %12, i64 48
  %45 = load i64, ptr %44, align 8
  %46 = add i64 %45, %43
  store i64 %46, ptr %44, align 8
  %indvars.iv.next = add nuw nsw i64 %indvars.iv, 1
  %exitcond.not = icmp eq i64 %indvars.iv.next, 8
  br i1 %exitcond.not, label %.preheader.preheader, label %11, !llvm.loop !6

.preheader.preheader:                             ; preds = %11
  tail call void @llvm.memset.p0.i64(ptr noundef nonnull align 16 dereferenceable(512) @pending_SLRUStats, i8 0, i64 512, i1 false)
  tail call void @LWLockRelease(ptr noundef nonnull %3) #9
  store i1 false, ptr @have_slrustats, align 1
  br label %47

47:                                               ; preds = %7, %1, %.preheader.preheader
  %.0 = phi i1 [ false, %.preheader.preheader ], [ false, %1 ], [ true, %7 ]
  ret i1 %.0
}